target datalayout = "e-m:e-p270:32:32-p271:32:32-p272:64:64-i64:64-i128:128-f80:128-n8:16:32:64-S128"
target triple = "x86_64-pc-linux-gnu"

%struct.s_mmfile = type { ptr, i64 }
%struct.s_chastore = type { ptr, ptr, i64, i64, ptr, ptr, i64 }
%struct.s_xdfenv = type { %struct.s_xdfile, %struct.s_xdfile }
%struct.s_xdfile = type { %struct.s_chastore, i64, i32, ptr, i64, i64, ptr, ptr, ptr, i64, ptr }
%struct.s_xrecord = type { ptr, ptr, i64, i64 }

; Function Attrs: nounwind uwtable
define dso_local i32 @xdl_fall_back_diff(ptr noundef %0, ptr noundef %1, i32 noundef %2, i32 noundef %3, i32 noundef %4, i32 noundef %5) #0 {
  %7 = alloca i32, align 4
  %8 = alloca ptr, align 8
  %9 = alloca ptr, align 8
  %10 = alloca i32, align 4
  %11 = alloca i32, align 4
  %12 = alloca i32, align 4
  %13 = alloca i32, align 4
  %14 = alloca %struct.s_mmfile, align 8
  %15 = alloca %struct.s_mmfile, align 8
  %16 = alloca %struct.s_xdfenv, align 8
  %17 = alloca i32, align 4
  store ptr %0, ptr %8, align 8, !tbaa !70
  store ptr %1, ptr %9, align 8, !tbaa !72
  store i32 %2, ptr %10, align 4, !tbaa !15
  store i32 %3, ptr %11, align 4, !tbaa !15
  store i32 %4, ptr %12, align 4, !tbaa !15
  store i32 %5, ptr %13, align 4, !tbaa !15
  call void @llvm.lifetime.start.p0(i64 16, ptr %14) #6
  call void @llvm.lifetime.start.p0(i64 16, ptr %15) #6
  call void @llvm.lifetime.start.p0(i64 272, ptr %16) #6
  %18 = load ptr, ptr %8, align 8, !tbaa !70
  %19 = getelementptr inbounds nuw %struct.s_xdfenv, ptr %18, i32 0, i32 0
  %20 = getelementptr inbounds nuw %struct.s_xdfile, ptr %19, i32 0, i32 6
  %21 = load ptr, ptr %20, align 8, !tbaa !74
  %22 = load i32, ptr %10, align 4, !tbaa !15
  %23 = sub nsw i32 %22, 1
  %24 = sext i32 %23 to i64
  %25 = getelementptr inbounds ptr, ptr %21, i64 %24
  %26 = load ptr, ptr %25, align 8, !tbaa !78
  %27 = getelementptr inbounds nuw %struct.s_xrecord, ptr %26, i32 0, i32 1
  %28 = load ptr, ptr %27, align 8, !tbaa !80
  %29 = getelementptr inbounds nuw %struct.s_mmfile, ptr %14, i32 0, i32 0
  store ptr %28, ptr %29, align 8, !tbaa !30
  %30 = load ptr, ptr %8, align 8, !tbaa !70
  %31 = getelementptr inbounds nuw %struct.s_xdfenv, ptr %30, i32 0, i32 0
  %32 = getelementptr inbounds nuw %struct.s_xdfile, ptr %31, i32 0, i32 6
  %33 = load ptr, ptr %32, align 8, !tbaa !74
  %34 = load i32, ptr %10, align 4, !tbaa !15
  %35 = load i32, ptr %11, align 4, !tbaa !15
  %36 = add nsw i32 %34, %35
  %37 = sub nsw i32 %36, 2
  %38 = sext i32 %37 to i64
  %39 = getelementptr inbounds ptr, ptr %33, i64 %38
  %40 = load ptr, ptr %39, align 8, !tbaa !78
  %41 = getelementptr inbounds nuw %struct.s_xrecord, ptr %40, i32 0, i32 1
  %42 = load ptr, ptr %41, align 8, !tbaa !80
  %43 = load ptr, ptr %8, align 8, !tbaa !70
  %44 = getelementptr inbounds nuw %struct.s_xdfenv, ptr %43, i32 0, i32 0
  %45 = getelementptr inbounds nuw %struct.s_xdfile, ptr %44, i32 0, i32 6
  %46 = load ptr, ptr %45, align 8, !tbaa !74
  %47 = load i32, ptr %10, align 4, !tbaa !15
  %48 = load i32, ptr %11, align 4, !tbaa !15
  %49 = add nsw i32 %47, %48
  %50 = sub nsw i32 %49, 2
  %51 = sext i32 %50 to i64
  %52 = getelementptr inbounds ptr, ptr %46, i64 %51
  %53 = load ptr, ptr %52, align 8, !tbaa !78
  %54 = getelementptr inbounds nuw %struct.s_xrecord, ptr %53, i32 0, i32 2
  %55 = load i64, ptr %54, align 8, !tbaa !82
  %56 = getelementptr inbounds i8, ptr %42, i64 %55
  %57 = getelementptr inbounds nuw %struct.s_mmfile, ptr %14, i32 0, i32 0
  %58 = load ptr, ptr %57, align 8, !tbaa !30
  %59 = ptrtoint ptr %56 to i64
  %60 = ptrtoint ptr %58 to i64
  %61 = sub i64 %59, %60
  %62 = getelementptr inbounds nuw %struct.s_mmfile, ptr %14, i32 0, i32 1
  store i64 %61, ptr %62, align 8, !tbaa !28
  %63 = load ptr, ptr %8, align 8, !tbaa !70
  %64 = getelementptr inbounds nuw %struct.s_xdfenv, ptr %63, i32 0, i32 1
  %65 = getelementptr inbounds nuw %struct.s_xdfile, ptr %64, i32 0, i32 6
  %66 = load ptr, ptr %65, align 8, !tbaa !83
  %67 = load i32, ptr %12, align 4, !tbaa !15
  %68 = sub nsw i32 %67, 1
  %69 = sext i32 %68 to i64
  %70 = getelementptr inbounds ptr, ptr %66, i64 %69
  %71 = load ptr, ptr %70, align 8, !tbaa !78
  %72 = getelementptr inbounds nuw %struct.s_xrecord, ptr %71, i32 0, i32 1
  %73 = load ptr, ptr %72, align 8, !tbaa !80
  %74 = getelementptr inbounds nuw %struct.s_mmfile, ptr %15, i32 0, i32 0
  store ptr %73, ptr %74, align 8, !tbaa !30
  %75 = load ptr, ptr %8, align 8, !tbaa !70
  %76 = getelementptr inbounds nuw %struct.s_xdfenv, ptr %75, i32 0, i32 1
  %77 = getelementptr inbounds nuw %struct.s_xdfile, ptr %76, i32 0, i32 6
  %78 = load ptr, ptr %77, align 8, !tbaa !83
  %79 = load i32, ptr %12, align 4, !tbaa !15
  %80 = load i32, ptr %13, align 4, !tbaa !15
  %81 = add nsw i32 %79, %80
  %82 = sub nsw i32 %81, 2
  %83 = sext i32 %82 to i64
  %84 = getelementptr inbounds ptr, ptr %78, i64 %83
  %85 = load ptr, ptr %84, align 8, !tbaa !78
  %86 = getelementptr inbounds nuw %struct.s_xrecord, ptr %85, i32 0, i32 1
  %87 = load ptr, ptr %86, align 8, !tbaa !80
  %88 = load ptr, ptr %8, align 8, !tbaa !70
  %89 = getelementptr inbounds nuw %struct.s_xdfenv, ptr %88, i32 0, i32 1
  %90 = getelementptr inbounds nuw %struct.s_xdfile, ptr %89, i32 0, i32 6
  %91 = load ptr, ptr %90, align 8, !tbaa !83
  %92 = load i32, ptr %12, align 4, !tbaa !15
  %93 = load i32, ptr %13, align 4, !tbaa !15
  %94 = add nsw i32 %92, %93
  %95 = sub nsw i32 %94, 2
  %96 = sext i32 %95 to i64
  %97 = getelementptr inbounds ptr, ptr %91, i64 %96
  %98 = load ptr, ptr %97, align 8, !tbaa !78
  %99 = getelementptr inbounds nuw %struct.s_xrecord, ptr %98, i32 0, i32 2
  %100 = load i64, ptr %99, align 8, !tbaa !82
  %101 = getelementptr inbounds i8, ptr %87, i64 %100
  %102 = getelementptr inbounds nuw %struct.s_mmfile, ptr %15, i32 0, i32 0
  %103 = load ptr, ptr %102, align 8, !tbaa !30
  %104 = ptrtoint ptr %101 to i64
  %105 = ptrtoint ptr %103 to i64
  %106 = sub i64 %104, %105
  %107 = getelementptr inbounds nuw %struct.s_mmfile, ptr %15, i32 0, i32 1
  store i64 %106, ptr %107, align 8, !tbaa !28
  %108 = load ptr, ptr %9, align 8, !tbaa !72
  %109 = call i32 @xdl_do_diff(ptr noundef %14, ptr noundef %15, ptr noundef %108, ptr noundef %16)
  %110 = icmp slt i32 %109, 0
  br i1 %110, label %111, label %112

111:                                              ; preds = %6
  store i32 -1, ptr %7, align 4
  store i32 1, ptr %17, align 4
  br label %139

112:                                              ; preds = %6
  %113 = load ptr, ptr %8, align 8, !tbaa !70
  %114 = getelementptr inbounds nuw %struct.s_xdfenv, ptr %113, i32 0, i32 0
  %115 = getelementptr inbounds nuw %struct.s_xdfile, ptr %114, i32 0, i32 7
  %116 = load ptr, ptr %115, align 8, !tbaa !84
  %117 = load i32, ptr %10, align 4, !tbaa !15
  %118 = sext i32 %117 to i64
  %119 = getelementptr inbounds i8, ptr %116, i64 %118
  %120 = getelementptr inbounds i8, ptr %119, i64 -1
  %121 = getelementptr inbounds nuw %struct.s_xdfenv, ptr %16, i32 0, i32 0
  %122 = getelementptr inbounds nuw %struct.s_xdfile, ptr %121, i32 0, i32 7
  %123 = load ptr, ptr %122, align 8, !tbaa !84
  %124 = load i32, ptr %11, align 4, !tbaa !15
  %125 = sext i32 %124 to i64
  call void @llvm.memcpy.p0.p0.i64(ptr align 1 %120, ptr align 1 %123, i64 %125, i1 false)
  %126 = load ptr, ptr %8, align 8, !tbaa !70
  %127 = getelementptr inbounds nuw %struct.s_xdfenv, ptr %126, i32 0, i32 1
  %128 = getelementptr inbounds nuw %struct.s_xdfile, ptr %127, i32 0, i32 7
  %129 = load ptr, ptr %128, align 8, !tbaa !85
  %130 = load i32, ptr %12, align 4, !tbaa !15
  %131 = sext i32 %130 to i64
  %132 = getelementptr inbounds i8, ptr %129, i64 %131
  %133 = getelementptr inbounds i8, ptr %132, i64 -1
  %134 = getelementptr inbounds nuw %struct.s_xdfenv, ptr %16, i32 0, i32 1
  %135 = getelementptr inbounds nuw %struct.s_xdfile, ptr %134, i32 0, i32 7
  %136 = load ptr, ptr %135, align 8, !tbaa !85
  %137 = load i32, ptr %13, align 4, !tbaa !15
  %138 = sext i32 %137 to i64
  call void @llvm.memcpy.p0.p0.i64(ptr align 1 %133, ptr align 1 %136, i64 %138, i1 false)
  call void @xdl_free_env(ptr noundef %16)
  store i32 0, ptr %7, align 4
  store i32 1, ptr %17, align 4
  br label %139

139:                                              ; preds = %112, %111
  call void @llvm.lifetime.end.p0(i64 272, ptr %16) #6
  call void @llvm.lifetime.end.p0(i64 16, ptr %15) #6
  call void @llvm.lifetime.end.p0(i64 16, ptr %14) #6
  %140 = load i32, ptr %7, align 4
  ret i32 %140
}