; Function Attrs: nounwind uwtable
define dso_local range(i32 -1, 1) i32 @xdl_fall_back_diff(ptr noundef readonly captures(none) %0, ptr noundef %1, i32 noundef %2, i32 noundef %3, i32 noundef %4, i32 noundef %5) local_unnamed_addr #2 {
  %7 = alloca %struct.s_mmfile, align 8
  %8 = alloca %struct.s_mmfile, align 8
  %9 = alloca %struct.s_xdfenv, align 8
  call void @llvm.lifetime.start.p0(i64 16, ptr nonnull %7) #18
  call void @llvm.lifetime.start.p0(i64 16, ptr nonnull %8) #18
  call void @llvm.lifetime.start.p0(i64 272, ptr nonnull %9) #18
  %10 = getelementptr inbounds nuw i8, ptr %0, i64 96
  %11 = load ptr, ptr %10, align 8, !tbaa !53
  %12 = sext i32 %2 to i64
  %13 = getelementptr ptr, ptr %11, i64 %12
  %14 = getelementptr i8, ptr %13, i64 -8
  %15 = load ptr, ptr %14, align 8, !tbaa !59
  %16 = getelementptr inbounds nuw i8, ptr %15, i64 8
  %17 = load ptr, ptr %16, align 8, !tbaa !61
  store ptr %17, ptr %7, align 8, !tbaa !21
  %18 = add nsw i32 %3, %2
  %19 = sext i32 %18 to i64
  %20 = getelementptr ptr, ptr %11, i64 %19
  %21 = getelementptr i8, ptr %20, i64 -16
  %22 = load ptr, ptr %21, align 8, !tbaa !59
  %23 = getelementptr inbounds nuw i8, ptr %22, i64 8
  %24 = load ptr, ptr %23, align 8, !tbaa !61
  %25 = getelementptr inbounds nuw i8, ptr %22, i64 16
  %26 = load i64, ptr %25, align 8, !tbaa !63
  %27 = getelementptr inbounds i8, ptr %24, i64 %26
  %28 = ptrtoint ptr %27 to i64
  %29 = ptrtoint ptr %17 to i64
  %30 = sub i64 %28, %29
  %31 = getelementptr inbounds nuw i8, ptr %7, i64 8
  store i64 %30, ptr %31, align 8, !tbaa !18
  %32 = getelementptr inbounds nuw i8, ptr %0, i64 232
  %33 = load ptr, ptr %32, align 8, !tbaa !64
  %34 = sext i32 %4 to i64
  %35 = getelementptr ptr, ptr %33, i64 %34
  %36 = getelementptr i8, ptr %35, i64 -8
  %37 = load ptr, ptr %36, align 8, !tbaa !59
  %38 = getelementptr inbounds nuw i8, ptr %37, i64 8
  %39 = load ptr, ptr %38, align 8, !tbaa !61
  store ptr %39, ptr %8, align 8, !tbaa !21
  %40 = add nsw i32 %5, %4
  %41 = sext i32 %40 to i64
  %42 = getelementptr ptr, ptr %33, i64 %41
  %43 = getelementptr i8, ptr %42, i64 -16
  %44 = load ptr, ptr %43, align 8, !tbaa !59
  %45 = getelementptr inbounds nuw i8, ptr %44, i64 8
  %46 = load ptr, ptr %45, align 8, !tbaa !61
  %47 = getelementptr inbounds nuw i8, ptr %44, i64 16
  %48 = load i64, ptr %47, align 8, !tbaa !63
  %49 = getelementptr inbounds i8, ptr %46, i64 %48
  %50 = ptrtoint ptr %49 to i64
  %51 = ptrtoint ptr %39 to i64
  %52 = sub i64 %50, %51
  %53 = getelementptr inbounds nuw i8, ptr %8, i64 8
  store i64 %52, ptr %53, align 8, !tbaa !18
  %54 = call i32 @xdl_do_diff(ptr noundef nonnull %7, ptr noundef nonnull %8, ptr noundef %1, ptr noundef nonnull %9) #18
  %55 = icmp slt i32 %54, 0
  br i1 %55, label %71, label %56

56:                                               ; preds = %6
  %57 = getelementptr inbounds nuw i8, ptr %0, i64 104
  %58 = load ptr, ptr %57, align 8, !tbaa !65
  %59 = getelementptr inbounds i8, ptr %58, i64 %12
  %60 = getelementptr inbounds i8, ptr %59, i64 -1
  %61 = getelementptr inbounds nuw i8, ptr %9, i64 104
  %62 = load ptr, ptr %61, align 8, !tbaa !65
  %63 = sext i32 %3 to i64
  call void @llvm.memcpy.p0.p0.i64(ptr nonnull align 1 %60, ptr align 1 %62, i64 %63, i1 false)
  %64 = getelementptr inbounds nuw i8, ptr %0, i64 240
  %65 = load ptr, ptr %64, align 8, !tbaa !66
  %66 = getelementptr inbounds i8, ptr %65, i64 %34
  %67 = getelementptr inbounds i8, ptr %66, i64 -1
  %68 = getelementptr inbounds nuw i8, ptr %9, i64 240
  %69 = load ptr, ptr %68, align 8, !tbaa !66
  %70 = sext i32 %5 to i64
  call void @llvm.memcpy.p0.p0.i64(ptr nonnull align 1 %67, ptr align 1 %69, i64 %70, i1 false)
  call void @xdl_free_env(ptr noundef nonnull %9) #18
  br label %71

71:                                               ; preds = %6, %56
  %.0 = phi i32 [ 0, %56 ], [ -1, %6 ]
  call void @llvm.lifetime.end.p0(i64 272, ptr nonnull %9) #18
  call void @llvm.lifetime.end.p0(i64 16, ptr nonnull %8) #18
  call void @llvm.lifetime.end.p0(i64 16, ptr nonnull %7) #18
  ret i32 %.0
}